Certificate:
    Data:
        Version: 3 (0x2)
        Serial Number: 4098 (0x1002)
    Signature Algorithm: sha256WithRSAEncryption
        Issuer: C=CN, ST=Shanghai, L=SH, O=FD, OU=NS, CN=Eric_hailong
        Validity
            Not Before: Dec  7 12:19:03 2018 GMT
            Not After : Dec  7 12:19:03 2019 GMT
        Subject: C=CN, ST=Shanghai, O=FD, OU=NS, CN=Hailong.com
        Subject Public Key Info:
            Public Key Algorithm: rsaEncryption
                Public-Key: (1024 bit)
                Modulus:
                    00:bf:28:2a:d6:eb:89:a9:ab:4a:e3:82:96:e8:1c:
                    76:53:62:51:40:5c:93:93:4b:71:1b:7a:75:07:8c:
                    54:0e:45:71:89:49:cf:08:93:dd:f0:f1:c9:8e:a8:
                    0e:9f:88:1c:7b:88:18:5f:05:01:74:a4:a7:b4:1d:
                    67:27:63:63:3c:b6:76:87:f1:7f:7a:f4:12:9c:ad:
                    3e:b2:a3:5e:ea:da:d7:f2:04:a4:2e:11:8c:8a:34:
                    44:78:2b:15:1f:d5:c9:a7:3e:12:79:48:e4:d9:00:
                    14:b1:da:13:03:be:12:72:9b:62:96:45:9b:e0:bd:
                    6f:68:19:b2:34:55:62:9c:3f
                Exponent: 65537 (0x10001)
        X509v3 extensions:
            X509v3 Basic Constraints: 
                CA:FALSE
            Netscape Comment: 
                OpenSSL Generated Certificate
            X509v3 Subject Key Identifier: 
                90:EC:DD:3A:8D:1C:49:45:B9:9C:84:07:93:DA:C7:5B:EC:B1:10:D6
            X509v3 Authority Key Identifier: 
                keyid:5C:97:88:70:3F:80:A8:8F:E6:91:9B:0D:EE:A4:F4:94:57:3C:76:1C

    Signature Algorithm: sha256WithRSAEncryption
         b0:69:f9:ed:76:59:11:b9:cc:68:43:58:d1:27:22:02:db:a3:
         f9:0f:b0:7c:b9:ac:21:4e:93:86:ac:20:7e:98:0d:4e:5e:5b:
         55:87:da:1f:b3:2e:f6:5b:c8:44:dd:93:f2:0b:43:32:79:2b:
         f5:df:81:4c:e5:2e:9e:a7:3a:25:20:d0:6f:ae:85:83:cc:54:
         e3:cb:df:ef:f1:ef:74:e7:a0:2f:01:8b:85:36:80:4e:14:d7:
         ab:a3:ee:18:8c:74:a1:df:4d:0b:6d:6c:a2:86:9d:6e:13:24:
         9f:ad:e9:71:d2:3f:83:54:a4:e1:e9:eb:6a:7a:ef:3a:53:ea:
         0f:27
-----BEGIN CERTIFICATE-----
MIICoDCCAgmgAwIBAgICEAIwDQYJKoZIhvcNAQELBQAwXjELMAkGA1UEBhMCQ04x
ETAPBgNVBAgMCFNoYW5naGFpMQswCQYDVQQHDAJTSDELMAkGA1UECgwCRkQxCzAJ
BgNVBAsMAk5TMRUwEwYDVQQDDAxFcmljX2hhaWxvbmcwHhcNMTgxMjA3MTIxOTAz
WhcNMTkxMjA3MTIxOTAzWjBQMQswCQYDVQQGEwJDTjERMA8GA1UECAwIU2hhbmdo
YWkxCzAJBgNVBAoMAkZEMQswCQYDVQQLDAJOUzEUMBIGA1UEAwwLSGFpbG9uZy5j
b20wgZ8wDQYJKoZIhvcNAQEBBQADgY0AMIGJAoGBAL8oKtbriamrSuOClugcdlNi
UUBck5NLcRt6dQeMVA5FcYlJzwiT3fDxyY6oDp+IHHuIGF8FAXSkp7QdZydjYzy2
dofxf3r0EpytPrKjXura1/IEpC4RjIo0RHgrFR/Vyac+EnlI5NkAFLHaEwO+EnKb
YpZFm+C9b2gZsjRVYpw/AgMBAAGjezB5MAkGA1UdEwQCMAAwLAYJYIZIAYb4QgEN
BB8WHU9wZW5TU0wgR2VuZXJhdGVkIENlcnRpZmljYXRlMB0GA1UdDgQWBBSQ7N06
jRxJRbmchAeT2sdb7LEQ1jAfBgNVHSMEGDAWgBRcl4hwP4Coj+aRmw3upPSUVzx2
HDANBgkqhkiG9w0BAQsFAAOBgQCwafntdlkRucxoQ1jRJyIC26P5D7B8uawhTpOG
rCB+mA1OXltVh9ofsy72W8hE3ZPyC0MyeSv134FM5S6epzolINBvroWDzFTjy9/v
8e9056AvAYuFNoBOFNero+4YjHSh300LbWyihp1uEySfrelx0j+DVKTh6etqeu86
U+oPJw==
-----END CERTIFICATE-----
