Certificate:
    Data:
        Version: 3 (0x2)
        Serial Number: 4099 (0x1003)
    Signature Algorithm: sha256WithRSAEncryption
        Issuer: C=CN, ST=Shanghai, L=SH, O=FD, OU=NS, CN=Eric_hailong
        Validity
            Not Before: Dec  7 12:20:00 2018 GMT
            Not After : Dec  7 12:20:00 2019 GMT
        Subject: C=CN, ST=Shanghai, O=FD, OU=NS, CN=EricHailong.client.com
        Subject Public Key Info:
            Public Key Algorithm: rsaEncryption
                Public-Key: (1024 bit)
                Modulus:
                    00:c8:ee:37:e2:a7:bb:ce:b8:94:92:44:3c:6f:8a:
                    e1:4c:24:7a:86:91:3a:ea:17:2b:42:c5:e1:d4:d4:
                    ce:59:29:d6:ee:68:58:00:96:67:85:ba:dd:31:75:
                    7d:0b:a6:a6:09:f8:37:32:2e:5e:79:20:b2:64:b6:
                    fe:0c:6c:82:be:f7:f6:cb:e8:ff:26:6f:05:7b:dc:
                    2b:a7:1b:90:92:a7:8a:69:50:44:66:26:94:39:7d:
                    65:a7:af:86:4c:ca:4b:bc:5b:6b:d4:19:b4:6e:7d:
                    e8:9a:57:11:1f:b7:9b:19:0b:f6:2c:53:1b:aa:69:
                    96:d6:79:1b:8d:54:d4:38:83
                Exponent: 65537 (0x10001)
        X509v3 extensions:
            X509v3 Basic Constraints: 
                CA:FALSE
            Netscape Comment: 
                OpenSSL Generated Certificate
            X509v3 Subject Key Identifier: 
                81:A4:96:F6:B8:71:90:23:A5:B2:22:04:22:73:F2:32:CE:1E:3C:D4
            X509v3 Authority Key Identifier: 
                keyid:5C:97:88:70:3F:80:A8:8F:E6:91:9B:0D:EE:A4:F4:94:57:3C:76:1C

    Signature Algorithm: sha256WithRSAEncryption
         94:06:76:e2:33:02:31:b7:25:a1:22:93:2e:66:34:3e:91:c1:
         85:8a:e7:09:23:a7:37:57:5c:eb:b2:81:04:c4:af:79:16:22:
         ce:5d:e7:9e:45:a8:81:89:0b:61:66:0c:26:b8:f6:77:60:90:
         0b:88:fe:15:b2:82:6f:0b:84:de:f1:8d:57:a4:81:e2:7d:d3:
         88:58:e7:9e:3c:6f:4c:41:84:d0:78:5e:89:6a:68:16:97:bb:
         f2:45:63:c8:73:f7:db:38:27:88:9b:72:c5:68:5e:77:bd:35:
         d7:09:3b:6d:a6:a6:b3:31:2e:ed:18:9a:ba:87:02:ea:2f:a8:
         fb:13
-----BEGIN CERTIFICATE-----
MIICqzCCAhSgAwIBAgICEAMwDQYJKoZIhvcNAQELBQAwXjELMAkGA1UEBhMCQ04x
ETAPBgNVBAgMCFNoYW5naGFpMQswCQYDVQQHDAJTSDELMAkGA1UECgwCRkQxCzAJ
BgNVBAsMAk5TMRUwEwYDVQQDDAxFcmljX2hhaWxvbmcwHhcNMTgxMjA3MTIyMDAw
WhcNMTkxMjA3MTIyMDAwWjBbMQswCQYDVQQGEwJDTjERMA8GA1UECAwIU2hhbmdo
YWkxCzAJBgNVBAoMAkZEMQswCQYDVQQLDAJOUzEfMB0GA1UEAwwWRXJpY0hhaWxv
bmcuY2xpZW50LmNvbTCBnzANBgkqhkiG9w0BAQEFAAOBjQAwgYkCgYEAyO434qe7
zriUkkQ8b4rhTCR6hpE66hcrQsXh1NTOWSnW7mhYAJZnhbrdMXV9C6amCfg3Mi5e
eSCyZLb+DGyCvvf2y+j/Jm8Fe9wrpxuQkqeKaVBEZiaUOX1lp6+GTMpLvFtr1Bm0
bn3omlcRH7ebGQv2LFMbqmmW1nkbjVTUOIMCAwEAAaN7MHkwCQYDVR0TBAIwADAs
BglghkgBhvhCAQ0EHxYdT3BlblNTTCBHZW5lcmF0ZWQgQ2VydGlmaWNhdGUwHQYD
VR0OBBYEFIGklva4cZAjpbIiBCJz8jLOHjzUMB8GA1UdIwQYMBaAFFyXiHA/gKiP
5pGbDe6k9JRXPHYcMA0GCSqGSIb3DQEBCwUAA4GBAJQGduIzAjG3JaEiky5mND6R
wYWK5wkjpzdXXOuygQTEr3kWIs5d555FqIGJC2FmDCa49ndgkAuI/hWygm8LhN7x
jVekgeJ904hY5548b0xBhNB4XolqaBaXu/JFY8hz99s4J4ibcsVoXne9NdcJO22m
prMxLu0YmrqHAuovqPsT
-----END CERTIFICATE-----
